target datalayout = "e-m:e-p270:32:32-p271:32:32-p272:64:64-i64:64-i128:128-f80:128-n8:16:32:64-S128"
target triple = "x86_64-pc-linux-gnu"

%struct.FilterParams = type { i32, double, ptr, ptr, ptr }

; Function Attrs: nounwind uwtable
define internal void @blend_negation_32bit(ptr noundef %0, i64 noundef %1, ptr noundef %2, i64 noundef %3, ptr noundef %4, i64 noundef %5, i64 noundef %6, i64 noundef %7, ptr noundef %8, ptr noundef %9) #0 {
  %11 = alloca ptr, align 8
  %12 = alloca i64, align 8
  %13 = alloca ptr, align 8
  %14 = alloca i64, align 8
  %15 = alloca ptr, align 8
  %16 = alloca i64, align 8
  %17 = alloca i64, align 8
  %18 = alloca i64, align 8
  %19 = alloca ptr, align 8
  %20 = alloca ptr, align 8
  %21 = alloca ptr, align 8
  %22 = alloca ptr, align 8
  %23 = alloca ptr, align 8
  %24 = alloca float, align 4
  %25 = alloca i32, align 4
  %26 = alloca i32, align 4
  %27 = alloca i32, align 4
  store ptr %0, ptr %11, align 8, !tbaa !46
  store i64 %1, ptr %12, align 8, !tbaa !88
  store ptr %2, ptr %13, align 8, !tbaa !46
  store i64 %3, ptr %14, align 8, !tbaa !88
  store ptr %4, ptr %15, align 8, !tbaa !46
  store i64 %5, ptr %16, align 8, !tbaa !88
  store i64 %6, ptr %17, align 8, !tbaa !88
  store i64 %7, ptr %18, align 8, !tbaa !88
  store ptr %8, ptr %19, align 8, !tbaa !77
  store ptr %9, ptr %20, align 8, !tbaa !89
  call void @llvm.lifetime.start.p0(i64 8, ptr %21) #12
  %28 = load ptr, ptr %11, align 8, !tbaa !46
  store ptr %28, ptr %21, align 8, !tbaa !91
  call void @llvm.lifetime.start.p0(i64 8, ptr %22) #12
  %29 = load ptr, ptr %13, align 8, !tbaa !46
  store ptr %29, ptr %22, align 8, !tbaa !91
  call void @llvm.lifetime.start.p0(i64 8, ptr %23) #12
  %30 = load ptr, ptr %15, align 8, !tbaa !46
  store ptr %30, ptr %23, align 8, !tbaa !91
  call void @llvm.lifetime.start.p0(i64 4, ptr %24) #12
  %31 = load ptr, ptr %19, align 8, !tbaa !77
  %32 = getelementptr inbounds nuw %struct.FilterParams, ptr %31, i32 0, i32 1
  %33 = load double, ptr %32, align 8, !tbaa !82
  %34 = fptrunc nsz double %33 to float
  store float %34, ptr %24, align 4, !tbaa !99
  %35 = load i64, ptr %16, align 8, !tbaa !88
  %36 = udiv i64 %35, 4
  store i64 %36, ptr %16, align 8, !tbaa !88
  %37 = load i64, ptr %12, align 8, !tbaa !88
  %38 = udiv i64 %37, 4
  store i64 %38, ptr %12, align 8, !tbaa !88
  %39 = load i64, ptr %14, align 8, !tbaa !88
  %40 = udiv i64 %39, 4
  store i64 %40, ptr %14, align 8, !tbaa !88
  call void @llvm.lifetime.start.p0(i64 4, ptr %25) #12
  store i32 0, ptr %25, align 4, !tbaa !37
  br label %41

41:                                               ; preds = %128, %10
  %42 = load i32, ptr %25, align 4, !tbaa !37
  %43 = sext i32 %42 to i64
  %44 = load i64, ptr %18, align 8, !tbaa !88
  %45 = icmp slt i64 %43, %44
  br i1 %45, label %47, label %46

46:                                               ; preds = %41
  store i32 2, ptr %26, align 4
  call void @llvm.lifetime.end.p0(i64 4, ptr %25) #12
  br label %131

47:                                               ; preds = %41
  call void @llvm.lifetime.start.p0(i64 4, ptr %27) #12
  store i32 0, ptr %27, align 4, !tbaa !37
  br label %48

48:                                               ; preds = %115, %47
  %49 = load i32, ptr %27, align 4, !tbaa !37
  %50 = sext i32 %49 to i64
  %51 = load i64, ptr %17, align 8, !tbaa !88
  %52 = icmp slt i64 %50, %51
  br i1 %52, label %54, label %53

53:                                               ; preds = %48
  store i32 5, ptr %26, align 4
  call void @llvm.lifetime.end.p0(i64 4, ptr %27) #12
  br label %118

54:                                               ; preds = %48
  %55 = load ptr, ptr %21, align 8, !tbaa !91
  %56 = load i32, ptr %27, align 4, !tbaa !37
  %57 = sext i32 %56 to i64
  %58 = getelementptr inbounds float, ptr %55, i64 %57
  %59 = load float, ptr %58, align 4, !tbaa !99
  %60 = load ptr, ptr %21, align 8, !tbaa !91
  %61 = load i32, ptr %27, align 4, !tbaa !37
  %62 = sext i32 %61 to i64
  %63 = getelementptr inbounds float, ptr %60, i64 %62
  %64 = load float, ptr %63, align 4, !tbaa !99
  %65 = fsub nsz float 1.000000e+00, %64
  %66 = load ptr, ptr %22, align 8, !tbaa !91
  %67 = load i32, ptr %27, align 4, !tbaa !37
  %68 = sext i32 %67 to i64
  %69 = getelementptr inbounds float, ptr %66, i64 %68
  %70 = load float, ptr %69, align 4, !tbaa !99
  %71 = fsub nsz float %65, %70
  %72 = fcmp nsz oge float %71, 0.000000e+00
  br i1 %72, label %73, label %86

73:                                               ; preds = %54
  %74 = load ptr, ptr %21, align 8, !tbaa !91
  %75 = load i32, ptr %27, align 4, !tbaa !37
  %76 = sext i32 %75 to i64
  %77 = getelementptr inbounds float, ptr %74, i64 %76
  %78 = load float, ptr %77, align 4, !tbaa !99
  %79 = fsub nsz float 1.000000e+00, %78
  %80 = load ptr, ptr %22, align 8, !tbaa !91
  %81 = load i32, ptr %27, align 4, !tbaa !37
  %82 = sext i32 %81 to i64
  %83 = getelementptr inbounds float, ptr %80, i64 %82
  %84 = load float, ptr %83, align 4, !tbaa !99
  %85 = fsub nsz float %79, %84
  br label %100

86:                                               ; preds = %54
  %87 = load ptr, ptr %21, align 8, !tbaa !91
  %88 = load i32, ptr %27, align 4, !tbaa !37
  %89 = sext i32 %88 to i64
  %90 = getelementptr inbounds float, ptr %87, i64 %89
  %91 = load float, ptr %90, align 4, !tbaa !99
  %92 = fsub nsz float 1.000000e+00, %91
  %93 = load ptr, ptr %22, align 8, !tbaa !91
  %94 = load i32, ptr %27, align 4, !tbaa !37
  %95 = sext i32 %94 to i64
  %96 = getelementptr inbounds float, ptr %93, i64 %95
  %97 = load float, ptr %96, align 4, !tbaa !99
  %98 = fsub nsz float %92, %97
  %99 = fneg nsz float %98
  br label %100

100:                                              ; preds = %86, %73
  %101 = phi nsz float [ %85, %73 ], [ %99, %86 ]
  %102 = fsub nsz float 1.000000e+00, %101
  %103 = load ptr, ptr %21, align 8, !tbaa !91
  %104 = load i32, ptr %27, align 4, !tbaa !37
  %105 = sext i32 %104 to i64
  %106 = getelementptr inbounds float, ptr %103, i64 %105
  %107 = load float, ptr %106, align 4, !tbaa !99
  %108 = fsub nsz float %102, %107
  %109 = load float, ptr %24, align 4, !tbaa !99
  %110 = call nsz float @llvm.fmuladd.f32(float %108, float %109, float %59)
  %111 = load ptr, ptr %23, align 8, !tbaa !91
  %112 = load i32, ptr %27, align 4, !tbaa !37
  %113 = sext i32 %112 to i64
  %114 = getelementptr inbounds float, ptr %111, i64 %113
  store float %110, ptr %114, align 4, !tbaa !99
  br label %115

115:                                              ; preds = %100
  %116 = load i32, ptr %27, align 4, !tbaa !37
  %117 = add nsw i32 %116, 1
  store i32 %117, ptr %27, align 4, !tbaa !37
  br label %48, !llvm.loop !626

118:                                              ; preds = %53
  %119 = load i64, ptr %16, align 8, !tbaa !88
  %120 = load ptr, ptr %23, align 8, !tbaa !91
  %121 = getelementptr inbounds float, ptr %120, i64 %119
  store ptr %121, ptr %23, align 8, !tbaa !91
  %122 = load i64, ptr %12, align 8, !tbaa !88
  %123 = load ptr, ptr %21, align 8, !tbaa !91
  %124 = getelementptr inbounds float, ptr %123, i64 %122
  store ptr %124, ptr %21, align 8, !tbaa !91
  %125 = load i64, ptr %14, align 8, !tbaa !88
  %126 = load ptr, ptr %22, align 8, !tbaa !91
  %127 = getelementptr inbounds float, ptr %126, i64 %125
  store ptr %127, ptr %22, align 8, !tbaa !91
  br label %128

128:                                              ; preds = %118
  %129 = load i32, ptr %25, align 4, !tbaa !37
  %130 = add nsw i32 %129, 1
  store i32 %130, ptr %25, align 4, !tbaa !37
  br label %41, !llvm.loop !627

131:                                              ; preds = %46
  call void @llvm.lifetime.end.p0(i64 4, ptr %24) #12
  call void @llvm.lifetime.end.p0(i64 8, ptr %23) #12
  call void @llvm.lifetime.end.p0(i64 8, ptr %22) #12
  call void @llvm.lifetime.end.p0(i64 8, ptr %21) #12
  ret void
}